---
triple:          'x86_64-apple-darwin'
binary-path:     'build/debug/play'
relocations:
  - { offsetInCU: 0x3F, offset: 0x3F, size: 0x8, addend: 0x0, symName: _app, symObjAddr: 0x1C758, symBinAddr: 0x100008000, symSize: 0x0 }
  - { offsetInCU: 0x372C, offset: 0x372C, size: 0x8, addend: 0x0, symName: __ZNSt3__124__put_character_sequenceB7v160006IcNS_11char_traitsIcEEEERNS_13basic_ostreamIT_T0_EES7_PKS4_m, symObjAddr: 0x890, symBinAddr: 0x100003180, symSize: 0x1F0 }
  - { offsetInCU: 0x506A, offset: 0x506A, size: 0x8, addend: 0x0, symName: __ZNSt3__1lsB7v160006INS_11char_traitsIcEEEERNS_13basic_ostreamIcT_EES6_PKc, symObjAddr: 0xE0, symBinAddr: 0x1000029D0, symSize: 0x40 }
  - { offsetInCU: 0x50B0, offset: 0x50B0, size: 0x8, addend: 0x0, symName: __ZNSt3__14endlB7v160006IcNS_11char_traitsIcEEEERNS_13basic_ostreamIT_T0_EES7_, symObjAddr: 0x140, symBinAddr: 0x100002A30, symSize: 0x50 }
  - { offsetInCU: 0x50F0, offset: 0x50F0, size: 0x8, addend: 0x0, symName: __ZNSt3__116__pad_and_outputB7v160006IcNS_11char_traitsIcEEEENS_19ostreambuf_iteratorIT_T0_EES6_PKS4_S8_S8_RNS_8ios_baseES4_, symObjAddr: 0xAD0, symBinAddr: 0x1000033C0, symSize: 0x220 }
  - { offsetInCU: 0x51C0, offset: 0x51C0, size: 0x8, addend: 0x0, symName: __ZNSt3__119__debug_db_insert_cB7v160006INS_12basic_stringIcNS_11char_traitsIcEENS_9allocatorIcEEEEEEvPT_, symObjAddr: 0xF70, symBinAddr: 0x100003860, symSize: 0x10 }
  - { offsetInCU: 0x51F1, offset: 0x51F1, size: 0x8, addend: 0x0, symName: __ZNSt3__112__to_addressB7v160006IKcEEPT_S3_, symObjAddr: 0x1010, symBinAddr: 0x100003900, symSize: 0x10 }
  - { offsetInCU: 0x5259, offset: 0x5259, size: 0x8, addend: 0x0, symName: __ZNSt3__19use_facetB7v160006INS_5ctypeIcEEEERKT_RKNS_6localeE, symObjAddr: 0x1270, symBinAddr: 0x100003B60, symSize: 0x30 }
  - { offsetInCU: 0x5728, offset: 0x5728, size: 0x8, addend: 0x0, symName: __ZNSt3__118__constexpr_strlenB7v160006EPKc, symObjAddr: 0x1300, symBinAddr: 0x100003BF0, symSize: 0x20 }
  - { offsetInCU: 0x7C95, offset: 0x7C95, size: 0x8, addend: 0x0, symName: __ZN3AppC1Ev, symObjAddr: 0x0, symBinAddr: 0x1000028F0, symSize: 0x20 }
  - { offsetInCU: 0x7CBF, offset: 0x7CBF, size: 0x8, addend: 0x0, symName: __Z7InitSDLv, symObjAddr: 0x20, symBinAddr: 0x100002910, symSize: 0xC0 }
  - { offsetInCU: 0x7CDC, offset: 0x7CDC, size: 0x8, addend: 0x0, symName: __ZNSt3__113basic_ostreamIcNS_11char_traitsIcEEElsB7v160006EPFRS3_S4_E, symObjAddr: 0x120, symBinAddr: 0x100002A10, symSize: 0x20 }
  - { offsetInCU: 0x7D0E, offset: 0x7D0E, size: 0x8, addend: 0x0, symName: __Z11LoadTextureRKNSt3__112basic_stringIcNS_11char_traitsIcEENS_9allocatorIcEEEEP12SDL_Renderer, symObjAddr: 0x190, symBinAddr: 0x100002A80, symSize: 0x80 }
  - { offsetInCU: 0x7D56, offset: 0x7D56, size: 0x8, addend: 0x0, symName: __ZNKSt3__112basic_stringIcNS_11char_traitsIcEENS_9allocatorIcEEE5c_strB7v160006Ev, symObjAddr: 0x210, symBinAddr: 0x100002B00, symSize: 0x20 }
  - { offsetInCU: 0x7D7A, offset: 0x7D7A, size: 0x8, addend: 0x0, symName: __Z11ClearScreenP12SDL_Renderer, symObjAddr: 0x230, symBinAddr: 0x100002B20, symSize: 0x30 }
  - { offsetInCU: 0x7DA2, offset: 0x7DA2, size: 0x8, addend: 0x0, symName: __Z12DrawMainCharP12SDL_RendererR6Square, symObjAddr: 0x260, symBinAddr: 0x100002B50, symSize: 0xA0 }
  - { offsetInCU: 0x7E02, offset: 0x7E02, size: 0x8, addend: 0x0, symName: __Z19ShutdownApplicationv, symObjAddr: 0x300, symBinAddr: 0x100002BF0, symSize: 0x80 }
  - { offsetInCU: 0x7E1B, offset: 0x7E1B, size: 0x8, addend: 0x0, symName: __Z15InitApplicationv, symObjAddr: 0x380, symBinAddr: 0x100002C70, symSize: 0x1E0 }
  - { offsetInCU: 0x7E3E, offset: 0x7E3E, size: 0x8, addend: 0x0, symName: __ZNSt3__112basic_stringIcNS_11char_traitsIcEENS_9allocatorIcEEEC1B7v160006IDnEEPKc, symObjAddr: 0x560, symBinAddr: 0x100002E50, symSize: 0x30 }
  - { offsetInCU: 0x7E79, offset: 0x7E79, size: 0x8, addend: 0x0, symName: __Z8SetState11SquareState, symObjAddr: 0x590, symBinAddr: 0x100002E80, symSize: 0x20 }
  - { offsetInCU: 0x7EA2, offset: 0x7EA2, size: 0x8, addend: 0x0, symName: _main, symObjAddr: 0x5B0, symBinAddr: 0x100002EA0, symSize: 0x240 }
  - { offsetInCU: 0x7EF6, offset: 0x7EF6, size: 0x8, addend: 0x0, symName: __ZN3AppC2Ev, symObjAddr: 0x7F0, symBinAddr: 0x1000030E0, symSize: 0x30 }
  - { offsetInCU: 0x7F25, offset: 0x7F25, size: 0x8, addend: 0x0, symName: __ZN8Graphics6ScreenC1Ev, symObjAddr: 0x820, symBinAddr: 0x100003110, symSize: 0x20 }
  - { offsetInCU: 0x7F4F, offset: 0x7F4F, size: 0x8, addend: 0x0, symName: __ZN8Graphics6ScreenC2Ev, symObjAddr: 0x840, symBinAddr: 0x100003130, symSize: 0x50 }
  - { offsetInCU: 0x7F7A, offset: 0x7F7A, size: 0x8, addend: 0x0, symName: __ZNSt3__111char_traitsIcE6lengthEPKc, symObjAddr: 0xA80, symBinAddr: 0x100003370, symSize: 0x30 }
  - { offsetInCU: 0x7FBA, offset: 0x7FBA, size: 0x8, addend: 0x0, symName: __ZNKSt3__113basic_ostreamIcNS_11char_traitsIcEEE6sentrycvbB7v160006Ev, symObjAddr: 0xAB0, symBinAddr: 0x1000033A0, symSize: 0x20 }
  - { offsetInCU: 0x7FDF, offset: 0x7FDF, size: 0x8, addend: 0x0, symName: __ZNSt3__119ostreambuf_iteratorIcNS_11char_traitsIcEEEC1B7v160006ERNS_13basic_ostreamIcS2_EE, symObjAddr: 0xCF0, symBinAddr: 0x1000035E0, symSize: 0x30 }
  - { offsetInCU: 0x8015, offset: 0x8015, size: 0x8, addend: 0x0, symName: __ZNKSt3__18ios_base5flagsB7v160006Ev, symObjAddr: 0xD20, symBinAddr: 0x100003610, symSize: 0x20 }
  - { offsetInCU: 0x803C, offset: 0x803C, size: 0x8, addend: 0x0, symName: __ZNKSt3__19basic_iosIcNS_11char_traitsIcEEE4fillB7v160006Ev, symObjAddr: 0xD40, symBinAddr: 0x100003630, symSize: 0x70 }
  - { offsetInCU: 0x8062, offset: 0x8062, size: 0x8, addend: 0x0, symName: __ZNKSt3__119ostreambuf_iteratorIcNS_11char_traitsIcEEE6failedB7v160006Ev, symObjAddr: 0xDB0, symBinAddr: 0x1000036A0, symSize: 0x20 }
  - { offsetInCU: 0x8086, offset: 0x8086, size: 0x8, addend: 0x0, symName: __ZNSt3__19basic_iosIcNS_11char_traitsIcEEE8setstateB7v160006Ej, symObjAddr: 0xDD0, symBinAddr: 0x1000036C0, symSize: 0x30 }
  - { offsetInCU: 0x80BA, offset: 0x80BA, size: 0x8, addend: 0x0, symName: __ZNKSt3__18ios_base5widthB7v160006Ev, symObjAddr: 0xE10, symBinAddr: 0x100003700, symSize: 0x20 }
  - { offsetInCU: 0x80E0, offset: 0x80E0, size: 0x8, addend: 0x0, symName: __ZNSt3__115basic_streambufIcNS_11char_traitsIcEEE5sputnB7v160006EPKcl, symObjAddr: 0xE30, symBinAddr: 0x100003720, symSize: 0x30 }
  - { offsetInCU: 0x8121, offset: 0x8121, size: 0x8, addend: 0x0, symName: __ZNSt3__112basic_stringIcNS_11char_traitsIcEENS_9allocatorIcEEEC1B7v160006Emc, symObjAddr: 0xE60, symBinAddr: 0x100003750, symSize: 0x30 }
  - { offsetInCU: 0x8166, offset: 0x8166, size: 0x8, addend: 0x0, symName: __ZNKSt3__112basic_stringIcNS_11char_traitsIcEENS_9allocatorIcEEE4dataB7v160006Ev, symObjAddr: 0xE90, symBinAddr: 0x100003780, symSize: 0x30 }
  - { offsetInCU: 0x818B, offset: 0x818B, size: 0x8, addend: 0x0, symName: __ZNSt3__18ios_base5widthB7v160006El, symObjAddr: 0xEC0, symBinAddr: 0x1000037B0, symSize: 0x30 }
  - { offsetInCU: 0x81D0, offset: 0x81D0, size: 0x8, addend: 0x0, symName: __ZNSt3__112basic_stringIcNS_11char_traitsIcEENS_9allocatorIcEEEC2B7v160006Emc, symObjAddr: 0xEF0, symBinAddr: 0x1000037E0, symSize: 0x50 }
  - { offsetInCU: 0x821B, offset: 0x821B, size: 0x8, addend: 0x0, symName: __ZNSt3__117__compressed_pairINS_12basic_stringIcNS_11char_traitsIcEENS_9allocatorIcEEE5__repES5_EC1B7v160006INS_18__default_init_tagESA_EEOT_OT0_, symObjAddr: 0xF40, symBinAddr: 0x100003830, symSize: 0x30 }
  - { offsetInCU: 0x8271, offset: 0x8271, size: 0x8, addend: 0x0, symName: __ZNSt3__117__compressed_pairINS_12basic_stringIcNS_11char_traitsIcEENS_9allocatorIcEEE5__repES5_EC2B7v160006INS_18__default_init_tagESA_EEOT_OT0_, symObjAddr: 0xF80, symBinAddr: 0x100003870, symSize: 0x30 }
  - { offsetInCU: 0x82C7, offset: 0x82C7, size: 0x8, addend: 0x0, symName: __ZNSt3__122__compressed_pair_elemINS_12basic_stringIcNS_11char_traitsIcEENS_9allocatorIcEEE5__repELi0ELb0EEC2B7v160006ENS_18__default_init_tagE, symObjAddr: 0xFB0, symBinAddr: 0x1000038A0, symSize: 0x10 }
  - { offsetInCU: 0x82FA, offset: 0x82FA, size: 0x8, addend: 0x0, symName: __ZNSt3__122__compressed_pair_elemINS_9allocatorIcEELi1ELb1EEC2B7v160006ENS_18__default_init_tagE, symObjAddr: 0xFC0, symBinAddr: 0x1000038B0, symSize: 0x20 }
  - { offsetInCU: 0x832D, offset: 0x832D, size: 0x8, addend: 0x0, symName: __ZNSt3__19allocatorIcEC2B7v160006Ev, symObjAddr: 0xFE0, symBinAddr: 0x1000038D0, symSize: 0x20 }
  - { offsetInCU: 0x8355, offset: 0x8355, size: 0x8, addend: 0x0, symName: __ZNSt3__116__non_trivial_ifILb1ENS_9allocatorIcEEEC2B7v160006Ev, symObjAddr: 0x1000, symBinAddr: 0x1000038F0, symSize: 0x10 }
  - { offsetInCU: 0x837C, offset: 0x837C, size: 0x8, addend: 0x0, symName: __ZNKSt3__112basic_stringIcNS_11char_traitsIcEENS_9allocatorIcEEE13__get_pointerB7v160006Ev, symObjAddr: 0x1020, symBinAddr: 0x100003910, symSize: 0x50 }
  - { offsetInCU: 0x83A0, offset: 0x83A0, size: 0x8, addend: 0x0, symName: __ZNKSt3__112basic_stringIcNS_11char_traitsIcEENS_9allocatorIcEEE9__is_longB7v160006Ev, symObjAddr: 0x1070, symBinAddr: 0x100003960, symSize: 0x30 }
  - { offsetInCU: 0x83C4, offset: 0x83C4, size: 0x8, addend: 0x0, symName: __ZNKSt3__112basic_stringIcNS_11char_traitsIcEENS_9allocatorIcEEE18__get_long_pointerB7v160006Ev, symObjAddr: 0x10A0, symBinAddr: 0x100003990, symSize: 0x20 }
  - { offsetInCU: 0x83E8, offset: 0x83E8, size: 0x8, addend: 0x0, symName: __ZNKSt3__112basic_stringIcNS_11char_traitsIcEENS_9allocatorIcEEE19__get_short_pointerB7v160006Ev, symObjAddr: 0x10C0, symBinAddr: 0x1000039B0, symSize: 0x30 }
  - { offsetInCU: 0x840C, offset: 0x840C, size: 0x8, addend: 0x0, symName: __ZNKSt3__117__compressed_pairINS_12basic_stringIcNS_11char_traitsIcEENS_9allocatorIcEEE5__repES5_E5firstB7v160006Ev, symObjAddr: 0x10F0, symBinAddr: 0x1000039E0, symSize: 0x20 }
  - { offsetInCU: 0x8430, offset: 0x8430, size: 0x8, addend: 0x0, symName: __ZNKSt3__122__compressed_pair_elemINS_12basic_stringIcNS_11char_traitsIcEENS_9allocatorIcEEE5__repELi0ELb0EE5__getB7v160006Ev, symObjAddr: 0x1110, symBinAddr: 0x100003A00, symSize: 0x10 }
  - { offsetInCU: 0x8455, offset: 0x8455, size: 0x8, addend: 0x0, symName: __ZNSt3__114pointer_traitsIPKcE10pointer_toB7v160006ERS1_, symObjAddr: 0x1120, symBinAddr: 0x100003A10, symSize: 0x10 }
  - { offsetInCU: 0x8478, offset: 0x8478, size: 0x8, addend: 0x0, symName: __ZNSt3__119ostreambuf_iteratorIcNS_11char_traitsIcEEEC2B7v160006ERNS_13basic_ostreamIcS2_EE, symObjAddr: 0x1130, symBinAddr: 0x100003A20, symSize: 0x50 }
  - { offsetInCU: 0x84AE, offset: 0x84AE, size: 0x8, addend: 0x0, symName: __ZNKSt3__19basic_iosIcNS_11char_traitsIcEEE5rdbufB7v160006Ev, symObjAddr: 0x1180, symBinAddr: 0x100003A70, symSize: 0x20 }
  - { offsetInCU: 0x84D4, offset: 0x84D4, size: 0x8, addend: 0x0, symName: __ZNKSt3__18ios_base5rdbufB7v160006Ev, symObjAddr: 0x11A0, symBinAddr: 0x100003A90, symSize: 0x20 }
  - { offsetInCU: 0x84F9, offset: 0x84F9, size: 0x8, addend: 0x0, symName: __ZNSt3__111char_traitsIcE11eq_int_typeEii, symObjAddr: 0x11C0, symBinAddr: 0x100003AB0, symSize: 0x20 }
  - { offsetInCU: 0x852A, offset: 0x852A, size: 0x8, addend: 0x0, symName: __ZNSt3__111char_traitsIcE3eofEv, symObjAddr: 0x11E0, symBinAddr: 0x100003AD0, symSize: 0x10 }
  - { offsetInCU: 0x853E, offset: 0x853E, size: 0x8, addend: 0x0, symName: __ZNKSt3__19basic_iosIcNS_11char_traitsIcEEE5widenB7v160006Ec, symObjAddr: 0x11F0, symBinAddr: 0x100003AE0, symSize: 0x80 }
  - { offsetInCU: 0x85AA, offset: 0x85AA, size: 0x8, addend: 0x0, symName: __ZNKSt3__15ctypeIcE5widenB7v160006Ec, symObjAddr: 0x12A0, symBinAddr: 0x100003B90, symSize: 0x30 }
  - { offsetInCU: 0x85DE, offset: 0x85DE, size: 0x8, addend: 0x0, symName: __ZNSt3__18ios_base8setstateB7v160006Ej, symObjAddr: 0x12D0, symBinAddr: 0x100003BC0, symSize: 0x30 }
  - { offsetInCU: 0x8614, offset: 0x8614, size: 0x8, addend: 0x0, symName: __ZNSt3__112basic_stringIcNS_11char_traitsIcEENS_9allocatorIcEEEC2B7v160006IDnEEPKc, symObjAddr: 0x1320, symBinAddr: 0x100003C10, symSize: 0x55 }
...
